; Function Attrs: nounwind uwtable
define zeroext i8 @l_Lean_Parser_isQuotableCharForStrInterpolant(i32 noundef %0) local_unnamed_addr #0 {
  %.not = icmp eq i32 %0, 123
  br i1 %.not, label %4, label %2

2:                                                ; preds = %1
  %3 = tail call zeroext i8 @l_Lean_Parser_isQuotableCharDefault(i32 noundef %0) #3
  br label %4

4:                                                ; preds = %1, %2
  %.0 = phi i8 [ %3, %2 ], [ 1, %1 ]
  ret i8 %.0
}